target datalayout = "e-m:e-p270:32:32-p271:32:32-p272:64:64-i64:64-i128:128-f80:128-n8:16:32:64-S128"
target triple = "x86_64-pc-linux-gnu"

%struct.BlockRefTableBuffer = type { ptr, ptr, [65536 x i8], i32, i32, i32 }
%struct.BlockRefTableReader = type { %struct.BlockRefTableBuffer, ptr, ptr, ptr, i32, i32, ptr, [4096 x i16], i32 }

; Function Attrs: nounwind uwtable
define dso_local i32 @BlockRefTableReaderGetBlocks(ptr noundef %0, ptr noundef %1, i32 noundef %2) #0 {
  %4 = alloca ptr, align 8
  %5 = alloca ptr, align 8
  %6 = alloca i32, align 4
  %7 = alloca i32, align 4
  %8 = alloca i16, align 2
  %9 = alloca i32, align 4
  %10 = alloca i16, align 2
  %11 = alloca i16, align 2
  %12 = alloca i16, align 2
  %13 = alloca i32, align 4
  store ptr %0, ptr %4, align 8
  store ptr %1, ptr %5, align 8
  store i32 %2, ptr %6, align 4
  call void @llvm.lifetime.start.p0(i64 4, ptr %7) #10
  store i32 0, ptr %7, align 4
  br label %14

14:                                               ; preds = %167, %3
  call void @llvm.lifetime.start.p0(i64 2, ptr %8) #10
  %15 = load ptr, ptr %4, align 8
  %16 = getelementptr inbounds nuw %struct.BlockRefTableReader, ptr %15, i32 0, i32 5
  %17 = load i32, ptr %16, align 4
  %18 = icmp ugt i32 %17, 0
  br i1 %18, label %19, label %122

19:                                               ; preds = %14
  call void @llvm.lifetime.start.p0(i64 4, ptr %9) #10
  %20 = load ptr, ptr %4, align 8
  %21 = getelementptr inbounds nuw %struct.BlockRefTableReader, ptr %20, i32 0, i32 5
  %22 = load i32, ptr %21, align 4
  %23 = sub i32 %22, 1
  store i32 %23, ptr %9, align 4
  call void @llvm.lifetime.start.p0(i64 2, ptr %10) #10
  %24 = load ptr, ptr %4, align 8
  %25 = getelementptr inbounds nuw %struct.BlockRefTableReader, ptr %24, i32 0, i32 6
  %26 = load ptr, ptr %25, align 8
  %27 = load i32, ptr %9, align 4
  %28 = zext i32 %27 to i64
  %29 = getelementptr inbounds nuw i16, ptr %26, i64 %28
  %30 = load i16, ptr %29, align 2
  store i16 %30, ptr %10, align 2
  %31 = load i16, ptr %10, align 2
  %32 = zext i16 %31 to i64
  %33 = icmp eq i64 %32, 4096
  br i1 %33, label %34, label %84

34:                                               ; preds = %19
  br label %35

35:                                               ; preds = %78, %34
  %36 = load ptr, ptr %4, align 8
  %37 = getelementptr inbounds nuw %struct.BlockRefTableReader, ptr %36, i32 0, i32 8
  %38 = load i32, ptr %37, align 8
  %39 = icmp ult i32 %38, 65536
  br i1 %39, label %40, label %44

40:                                               ; preds = %35
  %41 = load i32, ptr %7, align 4
  %42 = load i32, ptr %6, align 4
  %43 = icmp ult i32 %41, %42
  br label %44

44:                                               ; preds = %40, %35
  %45 = phi i1 [ false, %35 ], [ %43, %40 ]
  br i1 %45, label %46, label %83

46:                                               ; preds = %44
  call void @llvm.lifetime.start.p0(i64 2, ptr %11) #10
  %47 = load ptr, ptr %4, align 8
  %48 = getelementptr inbounds nuw %struct.BlockRefTableReader, ptr %47, i32 0, i32 8
  %49 = load i32, ptr %48, align 8
  %50 = trunc i32 %49 to i16
  store i16 %50, ptr %11, align 2
  call void @llvm.lifetime.start.p0(i64 2, ptr %12) #10
  %51 = load ptr, ptr %4, align 8
  %52 = getelementptr inbounds nuw %struct.BlockRefTableReader, ptr %51, i32 0, i32 7
  %53 = load i16, ptr %11, align 2
  %54 = zext i16 %53 to i64
  %55 = udiv i64 %54, 16
  %56 = getelementptr inbounds nuw [4096 x i16], ptr %52, i64 0, i64 %55
  %57 = load i16, ptr %56, align 2
  store i16 %57, ptr %12, align 2
  %58 = load i16, ptr %12, align 2
  %59 = zext i16 %58 to i32
  %60 = load i16, ptr %11, align 2
  %61 = zext i16 %60 to i64
  %62 = urem i64 %61, 16
  %63 = trunc i64 %62 to i32
  %64 = shl i32 1, %63
  %65 = and i32 %59, %64
  %66 = icmp ne i32 %65, 0
  br i1 %66, label %67, label %78

67:                                               ; preds = %46
  %68 = load i32, ptr %9, align 4
  %69 = mul i32 %68, 65536
  %70 = load i16, ptr %11, align 2
  %71 = zext i16 %70 to i32
  %72 = add i32 %69, %71
  %73 = load ptr, ptr %5, align 8
  %74 = load i32, ptr %7, align 4
  %75 = add i32 %74, 1
  store i32 %75, ptr %7, align 4
  %76 = zext i32 %74 to i64
  %77 = getelementptr inbounds nuw i32, ptr %73, i64 %76
  store i32 %72, ptr %77, align 4
  br label %78

78:                                               ; preds = %67, %46
  %79 = load ptr, ptr %4, align 8
  %80 = getelementptr inbounds nuw %struct.BlockRefTableReader, ptr %79, i32 0, i32 8
  %81 = load i32, ptr %80, align 8
  %82 = add i32 %81, 1
  store i32 %82, ptr %80, align 8
  call void @llvm.lifetime.end.p0(i64 2, ptr %12) #10
  call void @llvm.lifetime.end.p0(i64 2, ptr %11) #10
  br label %35, !llvm.loop !23

83:                                               ; preds = %44
  br label %121

84:                                               ; preds = %19
  br label %85

85:                                               ; preds = %98, %84
  %86 = load ptr, ptr %4, align 8
  %87 = getelementptr inbounds nuw %struct.BlockRefTableReader, ptr %86, i32 0, i32 8
  %88 = load i32, ptr %87, align 8
  %89 = load i16, ptr %10, align 2
  %90 = zext i16 %89 to i32
  %91 = icmp ult i32 %88, %90
  br i1 %91, label %92, label %96

92:                                               ; preds = %85
  %93 = load i32, ptr %7, align 4
  %94 = load i32, ptr %6, align 4
  %95 = icmp ult i32 %93, %94
  br label %96

96:                                               ; preds = %92, %85
  %97 = phi i1 [ false, %85 ], [ %95, %92 ]
  br i1 %97, label %98, label %120

98:                                               ; preds = %96
  %99 = load i32, ptr %9, align 4
  %100 = mul i32 %99, 65536
  %101 = load ptr, ptr %4, align 8
  %102 = getelementptr inbounds nuw %struct.BlockRefTableReader, ptr %101, i32 0, i32 7
  %103 = load ptr, ptr %4, align 8
  %104 = getelementptr inbounds nuw %struct.BlockRefTableReader, ptr %103, i32 0, i32 8
  %105 = load i32, ptr %104, align 8
  %106 = zext i32 %105 to i64
  %107 = getelementptr inbounds nuw [4096 x i16], ptr %102, i64 0, i64 %106
  %108 = load i16, ptr %107, align 2
  %109 = zext i16 %108 to i32
  %110 = add i32 %100, %109
  %111 = load ptr, ptr %5, align 8
  %112 = load i32, ptr %7, align 4
  %113 = add i32 %112, 1
  store i32 %113, ptr %7, align 4
  %114 = zext i32 %112 to i64
  %115 = getelementptr inbounds nuw i32, ptr %111, i64 %114
  store i32 %110, ptr %115, align 4
  %116 = load ptr, ptr %4, align 8
  %117 = getelementptr inbounds nuw %struct.BlockRefTableReader, ptr %116, i32 0, i32 8
  %118 = load i32, ptr %117, align 8
  %119 = add i32 %118, 1
  store i32 %119, ptr %117, align 8
  br label %85, !llvm.loop !24

120:                                              ; preds = %96
  br label %121

121:                                              ; preds = %120, %83
  call void @llvm.lifetime.end.p0(i64 2, ptr %10) #10
  call void @llvm.lifetime.end.p0(i64 4, ptr %9) #10
  br label %122

122:                                              ; preds = %121, %14
  %123 = load i32, ptr %7, align 4
  %124 = load i32, ptr %6, align 4
  %125 = icmp uge i32 %123, %124
  br i1 %125, label %126, label %127

126:                                              ; preds = %122
  store i32 2, ptr %13, align 4
  br label %165

127:                                              ; preds = %122
  %128 = load ptr, ptr %4, align 8
  %129 = getelementptr inbounds nuw %struct.BlockRefTableReader, ptr %128, i32 0, i32 5
  %130 = load i32, ptr %129, align 4
  %131 = load ptr, ptr %4, align 8
  %132 = getelementptr inbounds nuw %struct.BlockRefTableReader, ptr %131, i32 0, i32 4
  %133 = load i32, ptr %132, align 8
  %134 = icmp eq i32 %130, %133
  br i1 %134, label %135, label %136

135:                                              ; preds = %127
  store i32 2, ptr %13, align 4
  br label %165

136:                                              ; preds = %127
  %137 = load ptr, ptr %4, align 8
  %138 = getelementptr inbounds nuw %struct.BlockRefTableReader, ptr %137, i32 0, i32 6
  %139 = load ptr, ptr %138, align 8
  %140 = load ptr, ptr %4, align 8
  %141 = getelementptr inbounds nuw %struct.BlockRefTableReader, ptr %140, i32 0, i32 5
  %142 = load i32, ptr %141, align 4
  %143 = zext i32 %142 to i64
  %144 = getelementptr inbounds nuw i16, ptr %139, i64 %143
  %145 = load i16, ptr %144, align 2
  store i16 %145, ptr %8, align 2
  %146 = load i16, ptr %8, align 2
  %147 = zext i16 %146 to i32
  %148 = icmp sgt i32 %147, 0
  br i1 %148, label %149, label %158

149:                                              ; preds = %136
  %150 = load ptr, ptr %4, align 8
  %151 = load ptr, ptr %4, align 8
  %152 = getelementptr inbounds nuw %struct.BlockRefTableReader, ptr %151, i32 0, i32 7
  %153 = getelementptr inbounds [4096 x i16], ptr %152, i64 0, i64 0
  %154 = load i16, ptr %8, align 2
  %155 = zext i16 %154 to i64
  %156 = mul i64 %155, 2
  %157 = trunc i64 %156 to i32
  call void @BlockRefTableRead(ptr noundef %150, ptr noundef %153, i32 noundef %157)
  br label %158

158:                                              ; preds = %149, %136
  %159 = load ptr, ptr %4, align 8
  %160 = getelementptr inbounds nuw %struct.BlockRefTableReader, ptr %159, i32 0, i32 5
  %161 = load i32, ptr %160, align 4
  %162 = add i32 %161, 1
  store i32 %162, ptr %160, align 4
  %163 = load ptr, ptr %4, align 8
  %164 = getelementptr inbounds nuw %struct.BlockRefTableReader, ptr %163, i32 0, i32 8
  store i32 0, ptr %164, align 8
  store i32 0, ptr %13, align 4
  br label %165

165:                                              ; preds = %158, %135, %126
  call void @llvm.lifetime.end.p0(i64 2, ptr %8) #10
  %166 = load i32, ptr %13, align 4
  switch i32 %166, label %170 [
    i32 0, label %167
    i32 2, label %168
  ]

167:                                              ; preds = %165
  br label %14

168:                                              ; preds = %165
  %169 = load i32, ptr %7, align 4
  store i32 1, ptr %13, align 4
  call void @llvm.lifetime.end.p0(i64 4, ptr %7) #10
  ret i32 %169

170:                                              ; preds = %165
  unreachable
}