; Function Attrs: nounwind uwtable
define dso_local i32 @BlockRefTableReaderGetBlocks(ptr noundef %0, ptr noundef writeonly captures(none) %1, i32 noundef %2) local_unnamed_addr #0 {
  %4 = getelementptr inbounds nuw i8, ptr %0, i64 65596
  %5 = getelementptr inbounds nuw i8, ptr %0, i64 65600
  %6 = getelementptr inbounds nuw i8, ptr %0, i64 73800
  %7 = getelementptr inbounds nuw i8, ptr %0, i64 65608
  %8 = getelementptr inbounds nuw i8, ptr %0, i64 65592
  %9 = zext i32 %2 to i64
  %.pre = load i32, ptr %4, align 4
  br label %10

10:                                               ; preds = %78, %3
  %11 = phi i32 [ %.pre, %3 ], [ %80, %78 ]
  %.041 = phi i32 [ 0, %3 ], [ %.1, %78 ]
  %.not = icmp eq i32 %11, 0
  br i1 %.not, label %.loopexit, label %12

12:                                               ; preds = %10
  %13 = add i32 %11, -1
  %14 = load ptr, ptr %5, align 8
  %15 = zext i32 %13 to i64
  %16 = getelementptr inbounds nuw i16, ptr %14, i64 %15
  %17 = load i16, ptr %16, align 2
  %18 = icmp eq i16 %17, 4096
  br i1 %18, label %.preheader, label %.preheader51

.preheader51:                                     ; preds = %12
  %19 = zext i16 %17 to i32
  %20 = load i32, ptr %6, align 8
  %21 = icmp ult i32 %20, %19
  %22 = icmp ult i32 %.041, %2
  %23 = and i1 %21, %22
  br i1 %23, label %.lr.ph, label %.loopexit

.lr.ph:                                           ; preds = %.preheader51
  %24 = shl i32 %13, 16
  %25 = zext i32 %.041 to i64
  br label %52

.preheader:                                       ; preds = %12
  %26 = load i32, ptr %6, align 8
  %27 = icmp ult i32 %26, 65536
  %28 = icmp ult i32 %.041, %2
  %29 = and i1 %27, %28
  br i1 %29, label %.lr.ph55, label %.loopexit

.lr.ph55:                                         ; preds = %.preheader
  %30 = shl i32 %13, 16
  br label %31

31:                                               ; preds = %.lr.ph55, %46
  %32 = phi i32 [ %26, %.lr.ph55 ], [ %48, %46 ]
  %.254 = phi i32 [ %.041, %.lr.ph55 ], [ %.3, %46 ]
  %33 = lshr i32 %32, 4
  %34 = zext nneg i32 %33 to i64
  %35 = getelementptr inbounds nuw [4096 x i16], ptr %7, i64 0, i64 %34
  %36 = load i16, ptr %35, align 2
  %37 = zext i16 %36 to i32
  %38 = and i32 %32, 15
  %39 = shl nuw nsw i32 1, %38
  %40 = and i32 %39, %37
  %.not48 = icmp eq i32 %40, 0
  br i1 %.not48, label %46, label %41

41:                                               ; preds = %31
  %42 = add nuw nsw i32 %32, %30
  %43 = add nuw i32 %.254, 1
  %44 = zext i32 %.254 to i64
  %45 = getelementptr inbounds nuw i32, ptr %1, i64 %44
  store i32 %42, ptr %45, align 4
  %.pre59 = load i32, ptr %6, align 8
  br label %46

46:                                               ; preds = %41, %31
  %47 = phi i32 [ %.pre59, %41 ], [ %32, %31 ]
  %.3 = phi i32 [ %43, %41 ], [ %.254, %31 ]
  %48 = add i32 %47, 1
  store i32 %48, ptr %6, align 8
  %49 = icmp ult i32 %48, 65536
  %50 = icmp ult i32 %.3, %2
  %51 = select i1 %49, i1 %50, i1 false
  br i1 %51, label %31, label %.loopexit, !llvm.loop !25

52:                                               ; preds = %.lr.ph, %52
  %indvars.iv = phi i64 [ %25, %.lr.ph ], [ %indvars.iv.next, %52 ]
  %53 = phi i32 [ %20, %.lr.ph ], [ %61, %52 ]
  %54 = zext nneg i32 %53 to i64
  %55 = getelementptr inbounds nuw [4096 x i16], ptr %7, i64 0, i64 %54
  %56 = load i16, ptr %55, align 2
  %57 = zext i16 %56 to i32
  %58 = or disjoint i32 %24, %57
  %indvars.iv.next = add nuw nsw i64 %indvars.iv, 1
  %59 = getelementptr inbounds nuw i32, ptr %1, i64 %indvars.iv
  store i32 %58, ptr %59, align 4
  %60 = load i32, ptr %6, align 8
  %61 = add i32 %60, 1
  store i32 %61, ptr %6, align 8
  %62 = icmp ult i32 %61, %19
  %63 = icmp samesign ult i64 %indvars.iv.next, %9
  %64 = select i1 %62, i1 %63, i1 false
  br i1 %64, label %52, label %.loopexit.loopexit57, !llvm.loop !26

.loopexit.loopexit57:                             ; preds = %52
  %65 = trunc nuw i64 %indvars.iv.next to i32
  br label %.loopexit

.loopexit:                                        ; preds = %46, %.loopexit.loopexit57, %.preheader51, %.preheader, %10
  %.1 = phi i32 [ %.041, %10 ], [ %.041, %.preheader ], [ %.041, %.preheader51 ], [ %65, %.loopexit.loopexit57 ], [ %.3, %46 ]
  %.not46 = icmp ult i32 %.1, %2
  br i1 %.not46, label %66, label %81

66:                                               ; preds = %.loopexit
  %67 = load i32, ptr %4, align 4
  %68 = load i32, ptr %8, align 8
  %69 = icmp eq i32 %67, %68
  br i1 %69, label %81, label %70

70:                                               ; preds = %66
  %71 = load ptr, ptr %5, align 8
  %72 = zext i32 %67 to i64
  %73 = getelementptr inbounds nuw i16, ptr %71, i64 %72
  %74 = load i16, ptr %73, align 2
  %.not47 = icmp eq i16 %74, 0
  br i1 %.not47, label %78, label %75

75:                                               ; preds = %70
  %76 = zext i16 %74 to i32
  %77 = shl nuw nsw i32 %76, 1
  tail call fastcc void @BlockRefTableRead(ptr noundef nonnull %0, ptr noundef nonnull %7, i32 noundef %77)
  %.pre60 = load i32, ptr %4, align 4
  br label %78

78:                                               ; preds = %70, %75
  %79 = phi i32 [ %67, %70 ], [ %.pre60, %75 ]
  %80 = add i32 %79, 1
  store i32 %80, ptr %4, align 4
  store i32 0, ptr %6, align 8
  br label %10

81:                                               ; preds = %.loopexit, %66
  ret i32 %.1
}